; Function Attrs: nounwind uwtable
define dso_local range(i64 0, 2) i64 @has_column_privilege_name_attnum(ptr noundef captures(none) %0) local_unnamed_addr #0 {
  %2 = alloca i8, align 1
  %3 = getelementptr inbounds nuw i8, ptr %0, i64 32
  %4 = load i64, ptr %3, align 8
  %5 = inttoptr i64 %4 to ptr
  %6 = tail call ptr @pg_detoast_datum_packed(ptr noundef %5) #14
  %7 = getelementptr inbounds nuw i8, ptr %0, i64 48
  %8 = load i64, ptr %7, align 8
  %9 = trunc i64 %8 to i16
  %10 = getelementptr inbounds nuw i8, ptr %0, i64 64
  %11 = load i64, ptr %10, align 8
  %12 = inttoptr i64 %11 to ptr
  %13 = tail call ptr @pg_detoast_datum_packed(ptr noundef %12) #14
  %14 = tail call i32 @GetUserId() #14
  %15 = tail call ptr @textToQualifiedNameList(ptr noundef %6) #14
  %16 = tail call ptr @makeRangeVarFromNameList(ptr noundef %15) #14
  %17 = tail call i32 @RangeVarGetRelidExtended(ptr noundef %16, i32 noundef 0, i32 noundef 0, ptr noundef null, ptr noundef null) #14
  %18 = tail call fastcc i64 @convert_any_priv_string(ptr noundef %13, ptr noundef nonnull @convert_column_priv_string.column_priv_map)
  call void @llvm.lifetime.start.p0(i64 1, ptr nonnull %2) #14
  store i8 0, ptr %2, align 1
  %19 = icmp eq i16 %9, 0
  br i1 %19, label %column_privilege_check.exit.thread, label %20

20:                                               ; preds = %1
  %21 = call i32 @pg_attribute_aclcheck_ext(i32 noundef %17, i16 noundef signext %9, i32 noundef %14, i64 noundef %18, ptr noundef nonnull %2) #14
  %22 = icmp eq i32 %21, 0
  br i1 %22, label %column_privilege_check.exit.thread15, label %23

23:                                               ; preds = %20
  %24 = load i8, ptr %2, align 1, !range !27, !noundef !28
  %25 = trunc nuw i8 %24 to i1
  br i1 %25, label %column_privilege_check.exit.thread, label %26

26:                                               ; preds = %23
  %27 = call i32 @pg_class_aclcheck_ext(i32 noundef %17, i32 noundef %14, i64 noundef %18, ptr noundef nonnull %2) #14
  %28 = icmp eq i32 %27, 0
  br i1 %28, label %column_privilege_check.exit.thread15, label %column_privilege_check.exit

column_privilege_check.exit.thread:               ; preds = %1, %23
  call void @llvm.lifetime.end.p0(i64 1, ptr nonnull %2) #14
  br label %30

column_privilege_check.exit.thread15:             ; preds = %20, %26
  call void @llvm.lifetime.end.p0(i64 1, ptr nonnull %2) #14
  br label %32

column_privilege_check.exit:                      ; preds = %26
  %29 = load i8, ptr %2, align 1, !range !27, !noundef !28
  call void @llvm.lifetime.end.p0(i64 1, ptr nonnull %2) #14
  %.not = icmp eq i8 %29, 0
  br i1 %.not, label %32, label %30

30:                                               ; preds = %column_privilege_check.exit.thread, %column_privilege_check.exit
  %31 = getelementptr inbounds nuw i8, ptr %0, i64 28
  store i8 1, ptr %31, align 4
  br label %32

32:                                               ; preds = %column_privilege_check.exit, %column_privilege_check.exit.thread15, %30
  %.0 = phi i64 [ 0, %30 ], [ 1, %column_privilege_check.exit.thread15 ], [ 0, %column_privilege_check.exit ]
  ret i64 %.0
}